	.file	"funcall.c"
	.globl	a
	.bss
	.align 4
	.type	a, @object
	.size	a, 4
a:
	.zero	4
	.globl	b
	.align 4
	.type	b, @object
	.size	b, 4
b:
	.zero	4
	.globl	c
	.data
	.align 4
	.type	c, @object
	.size	c, 4
c:
	.long	5
	.globl	d
	.align 4
	.type	d, @object
	.size	d, 4
d:
	.long	7
	.text
	.globl	soma
	.type	soma, @function
soma:
.LFB0:
	.cfi_startproc
	pushq	%rbp
	.cfi_def_cfa_offset 16
	.cfi_offset 6, -16
	movq	%rsp, %rbp
	.cfi_def_cfa_register 6
	movl	c(%rip), %edx
	movl	d(%rip), %eax
	addl	%edx, %eax
	movl	%eax, a(%rip)
	movl	a(%rip), %eax
	popq	%rbp
	.cfi_def_cfa 7, 8
	ret
	.cfi_endproc
.LFE0:
	.size	soma, .-soma
	.section	.rodata
.LC0:
	.string	"%d"
	.text
	.globl	main
	.type	main, @function
main:
.LFB1:
	.cfi_startproc
	pushq	%rbp
	.cfi_def_cfa_offset 16
	.cfi_offset 6, -16
	movq	%rsp, %rbp
	.cfi_def_cfa_register 6
	movl	$0, %eax
	call	soma
	movl	%eax, b(%rip)
	movl	b(%rip), %eax
	movl	%eax, %esi
	movl	$.LC0, %edi
	movl	$0, %eax
	call	printf
	movl	$0, %eax
	popq	%rbp
	.cfi_def_cfa 7, 8
	ret
	.cfi_endproc
.LFE1:
	.size	main, .-main
	.ident	"GCC: (Ubuntu 5.4.0-6ubuntu1~16.04.10) 5.4.0 20160609"
	.section	.note.GNU-stack,"",@progbits
